target datalayout = "e-m:e-p270:32:32-p271:32:32-p272:64:64-i64:64-i128:128-f80:128-n8:16:32:64-S128"
target triple = "x86_64-pc-linux-gnu"

%struct.AVFilterContext = type { ptr, ptr, ptr, ptr, ptr, i32, ptr, ptr, i32, ptr, ptr, i32, i32, ptr, ptr, ptr, ptr, i32, ptr, i32, i32 }
%struct.ColorMapContext = type { ptr, i32, i32, i32, i32, [2 x i32], [64 x [4 x float]], [64 x [4 x float]], [64 x [4 x float]], [4 x [4 x float]], [64 x [4 x float]], i32, i32, ptr, %struct.FFFrameSync, [4624 x double], [68 x double], [68 x i32] }
%struct.FFFrameSync = type { ptr, ptr, i32, %struct.AVRational, i64, ptr, ptr, i32, i32, i8, i8, ptr, i32, i32, i32, i32 }
%struct.AVRational = type { i32, i32 }
%struct.AVFilterLink = type { ptr, ptr, ptr, ptr, i32, i32, i32, i32, %struct.AVRational, i32, i32, i32, %struct.AVChannelLayout, %struct.AVRational, ptr, i32, %struct.AVFilterFormatsConfig, %struct.AVFilterFormatsConfig }
%struct.AVChannelLayout = type { i32, i32, %union.anon.1, ptr }
%union.anon.1 = type { i64 }
%struct.AVFilterFormatsConfig = type { ptr, ptr, ptr, ptr, ptr }
%struct.FilterLink = type { %struct.AVFilterLink, ptr, i64, i64, i32, i32, i64, i64, i64, i64, %struct.AVRational, ptr }
%struct.FFFrameSyncIn = type { i32, i32, %struct.AVRational, ptr, ptr, i64, i64, i8, i8, i32, i32 }

; Function Attrs: inlinehint nounwind uwtable
define internal ptr @ff_filter_link(ptr noundef %0) #4 {
  %2 = alloca ptr, align 8
  store ptr %0, ptr %2, align 8, !tbaa !24
  %3 = load ptr, ptr %2, align 8, !tbaa !24
  ret ptr %3
}

; Function Attrs: nounwind uwtable
define internal i32 @config_output(ptr noundef %0) #2 {
  %2 = alloca i32, align 4
  %3 = alloca ptr, align 8
  %4 = alloca ptr, align 8
  %5 = alloca ptr, align 8
  %6 = alloca ptr, align 8
  %7 = alloca ptr, align 8
  %8 = alloca ptr, align 8
  %9 = alloca ptr, align 8
  %10 = alloca ptr, align 8
  %11 = alloca ptr, align 8
  %12 = alloca i32, align 4
  %13 = alloca i32, align 4
  store ptr %0, ptr %3, align 8, !tbaa !24
  call void @llvm.lifetime.start.p0(i64 8, ptr %4) #10
  %14 = load ptr, ptr %3, align 8, !tbaa !24
  %15 = call ptr @ff_filter_link(ptr noundef %14)
  store ptr %15, ptr %4, align 8, !tbaa !26
  call void @llvm.lifetime.start.p0(i64 8, ptr %5) #10
  %16 = load ptr, ptr %3, align 8, !tbaa !24
  %17 = getelementptr inbounds nuw %struct.AVFilterLink, ptr %16, i32 0, i32 0
  %18 = load ptr, ptr %17, align 8, !tbaa !28
  store ptr %18, ptr %5, align 8, !tbaa !4
  call void @llvm.lifetime.start.p0(i64 8, ptr %6) #10
  %19 = load ptr, ptr %5, align 8, !tbaa !4
  %20 = getelementptr inbounds nuw %struct.AVFilterContext, ptr %19, i32 0, i32 9
  %21 = load ptr, ptr %20, align 8, !tbaa !9
  store ptr %21, ptr %6, align 8, !tbaa !22
  call void @llvm.lifetime.start.p0(i64 8, ptr %7) #10
  %22 = load ptr, ptr %5, align 8, !tbaa !4
  %23 = getelementptr inbounds nuw %struct.AVFilterContext, ptr %22, i32 0, i32 4
  %24 = load ptr, ptr %23, align 8, !tbaa !36
  %25 = getelementptr inbounds ptr, ptr %24, i64 0
  %26 = load ptr, ptr %25, align 8, !tbaa !24
  store ptr %26, ptr %7, align 8, !tbaa !24
  call void @llvm.lifetime.start.p0(i64 8, ptr %8) #10
  %27 = load ptr, ptr %7, align 8, !tbaa !24
  %28 = call ptr @ff_filter_link(ptr noundef %27)
  store ptr %28, ptr %8, align 8, !tbaa !26
  call void @llvm.lifetime.start.p0(i64 8, ptr %9) #10
  %29 = load ptr, ptr %5, align 8, !tbaa !4
  %30 = getelementptr inbounds nuw %struct.AVFilterContext, ptr %29, i32 0, i32 4
  %31 = load ptr, ptr %30, align 8, !tbaa !36
  %32 = getelementptr inbounds ptr, ptr %31, i64 1
  %33 = load ptr, ptr %32, align 8, !tbaa !24
  store ptr %33, ptr %9, align 8, !tbaa !24
  call void @llvm.lifetime.start.p0(i64 8, ptr %10) #10
  %34 = load ptr, ptr %5, align 8, !tbaa !4
  %35 = getelementptr inbounds nuw %struct.AVFilterContext, ptr %34, i32 0, i32 4
  %36 = load ptr, ptr %35, align 8, !tbaa !36
  %37 = getelementptr inbounds ptr, ptr %36, i64 2
  %38 = load ptr, ptr %37, align 8, !tbaa !24
  store ptr %38, ptr %10, align 8, !tbaa !24
  call void @llvm.lifetime.start.p0(i64 8, ptr %11) #10
  call void @llvm.lifetime.start.p0(i64 4, ptr %12) #10
  %39 = load ptr, ptr %3, align 8, !tbaa !24
  %40 = getelementptr inbounds nuw %struct.AVFilterLink, ptr %39, i32 0, i32 13
  %41 = load ptr, ptr %7, align 8, !tbaa !24
  %42 = getelementptr inbounds nuw %struct.AVFilterLink, ptr %41, i32 0, i32 13
  call void @llvm.memcpy.p0.p0.i64(ptr align 8 %40, ptr align 8 %42, i64 8, i1 false), !tbaa.struct !37
  %43 = load ptr, ptr %4, align 8, !tbaa !26
  %44 = getelementptr inbounds nuw %struct.FilterLink, ptr %43, i32 0, i32 10
  %45 = load ptr, ptr %8, align 8, !tbaa !26
  %46 = getelementptr inbounds nuw %struct.FilterLink, ptr %45, i32 0, i32 10
  call void @llvm.memcpy.p0.p0.i64(ptr align 8 %44, ptr align 8 %46, i64 8, i1 false), !tbaa.struct !37
  %47 = load ptr, ptr %3, align 8, !tbaa !24
  %48 = getelementptr inbounds nuw %struct.AVFilterLink, ptr %47, i32 0, i32 8
  %49 = load ptr, ptr %7, align 8, !tbaa !24
  %50 = getelementptr inbounds nuw %struct.AVFilterLink, ptr %49, i32 0, i32 8
  call void @llvm.memcpy.p0.p0.i64(ptr align 8 %48, ptr align 8 %50, i64 8, i1 false), !tbaa.struct !37
  %51 = load ptr, ptr %7, align 8, !tbaa !24
  %52 = getelementptr inbounds nuw %struct.AVFilterLink, ptr %51, i32 0, i32 6
  %53 = load i32, ptr %52, align 8, !tbaa !39
  %54 = load ptr, ptr %3, align 8, !tbaa !24
  %55 = getelementptr inbounds nuw %struct.AVFilterLink, ptr %54, i32 0, i32 6
  store i32 %53, ptr %55, align 8, !tbaa !39
  %56 = load ptr, ptr %7, align 8, !tbaa !24
  %57 = getelementptr inbounds nuw %struct.AVFilterLink, ptr %56, i32 0, i32 7
  %58 = load i32, ptr %57, align 4, !tbaa !40
  %59 = load ptr, ptr %3, align 8, !tbaa !24
  %60 = getelementptr inbounds nuw %struct.AVFilterLink, ptr %59, i32 0, i32 7
  store i32 %58, ptr %60, align 4, !tbaa !40
  %61 = load ptr, ptr %6, align 8, !tbaa !22
  %62 = getelementptr inbounds nuw %struct.ColorMapContext, ptr %61, i32 0, i32 14
  %63 = load ptr, ptr %5, align 8, !tbaa !4
  %64 = call i32 @ff_framesync_init(ptr noundef %62, ptr noundef %63, i32 noundef 3)
  store i32 %64, ptr %12, align 4, !tbaa !38
  %65 = icmp slt i32 %64, 0
  br i1 %65, label %66, label %68

66:                                               ; preds = %1
  %67 = load i32, ptr %12, align 4, !tbaa !38
  store i32 %67, ptr %2, align 4
  store i32 1, ptr %13, align 4
  br label %131

68:                                               ; preds = %1
  %69 = load ptr, ptr %6, align 8, !tbaa !22
  %70 = getelementptr inbounds nuw %struct.ColorMapContext, ptr %69, i32 0, i32 14
  %71 = getelementptr inbounds nuw %struct.FFFrameSync, ptr %70, i32 0, i32 11
  %72 = load ptr, ptr %71, align 8, !tbaa !41
  store ptr %72, ptr %11, align 8, !tbaa !46
  %73 = load ptr, ptr %11, align 8, !tbaa !46
  %74 = getelementptr inbounds %struct.FFFrameSyncIn, ptr %73, i64 0
  %75 = getelementptr inbounds nuw %struct.FFFrameSyncIn, ptr %74, i32 0, i32 2
  %76 = load ptr, ptr %7, align 8, !tbaa !24
  %77 = getelementptr inbounds nuw %struct.AVFilterLink, ptr %76, i32 0, i32 13
  call void @llvm.memcpy.p0.p0.i64(ptr align 8 %75, ptr align 8 %77, i64 8, i1 false), !tbaa.struct !37
  %78 = load ptr, ptr %11, align 8, !tbaa !46
  %79 = getelementptr inbounds %struct.FFFrameSyncIn, ptr %78, i64 1
  %80 = getelementptr inbounds nuw %struct.FFFrameSyncIn, ptr %79, i32 0, i32 2
  %81 = load ptr, ptr %9, align 8, !tbaa !24
  %82 = getelementptr inbounds nuw %struct.AVFilterLink, ptr %81, i32 0, i32 13
  call void @llvm.memcpy.p0.p0.i64(ptr align 8 %80, ptr align 8 %82, i64 8, i1 false), !tbaa.struct !37
  %83 = load ptr, ptr %11, align 8, !tbaa !46
  %84 = getelementptr inbounds %struct.FFFrameSyncIn, ptr %83, i64 2
  %85 = getelementptr inbounds nuw %struct.FFFrameSyncIn, ptr %84, i32 0, i32 2
  %86 = load ptr, ptr %10, align 8, !tbaa !24
  %87 = getelementptr inbounds nuw %struct.AVFilterLink, ptr %86, i32 0, i32 13
  call void @llvm.memcpy.p0.p0.i64(ptr align 8 %85, ptr align 8 %87, i64 8, i1 false), !tbaa.struct !37
  %88 = load ptr, ptr %11, align 8, !tbaa !46
  %89 = getelementptr inbounds %struct.FFFrameSyncIn, ptr %88, i64 0
  %90 = getelementptr inbounds nuw %struct.FFFrameSyncIn, ptr %89, i32 0, i32 9
  store i32 1, ptr %90, align 4, !tbaa !47
  %91 = load ptr, ptr %11, align 8, !tbaa !46
  %92 = getelementptr inbounds %struct.FFFrameSyncIn, ptr %91, i64 0
  %93 = getelementptr inbounds nuw %struct.FFFrameSyncIn, ptr %92, i32 0, i32 0
  store i32 0, ptr %93, align 8, !tbaa !50
  %94 = load ptr, ptr %11, align 8, !tbaa !46
  %95 = getelementptr inbounds %struct.FFFrameSyncIn, ptr %94, i64 0
  %96 = getelementptr inbounds nuw %struct.FFFrameSyncIn, ptr %95, i32 0, i32 1
  store i32 2, ptr %96, align 4, !tbaa !51
  %97 = load ptr, ptr %11, align 8, !tbaa !46
  %98 = getelementptr inbounds %struct.FFFrameSyncIn, ptr %97, i64 1
  %99 = getelementptr inbounds nuw %struct.FFFrameSyncIn, ptr %98, i32 0, i32 9
  store i32 1, ptr %99, align 4, !tbaa !47
  %100 = load ptr, ptr %11, align 8, !tbaa !46
  %101 = getelementptr inbounds %struct.FFFrameSyncIn, ptr %100, i64 1
  %102 = getelementptr inbounds nuw %struct.FFFrameSyncIn, ptr %101, i32 0, i32 0
  store i32 0, ptr %102, align 8, !tbaa !50
  %103 = load ptr, ptr %11, align 8, !tbaa !46
  %104 = getelementptr inbounds %struct.FFFrameSyncIn, ptr %103, i64 1
  %105 = getelementptr inbounds nuw %struct.FFFrameSyncIn, ptr %104, i32 0, i32 1
  store i32 2, ptr %105, align 4, !tbaa !51
  %106 = load ptr, ptr %11, align 8, !tbaa !46
  %107 = getelementptr inbounds %struct.FFFrameSyncIn, ptr %106, i64 2
  %108 = getelementptr inbounds nuw %struct.FFFrameSyncIn, ptr %107, i32 0, i32 9
  store i32 1, ptr %108, align 4, !tbaa !47
  %109 = load ptr, ptr %11, align 8, !tbaa !46
  %110 = getelementptr inbounds %struct.FFFrameSyncIn, ptr %109, i64 2
  %111 = getelementptr inbounds nuw %struct.FFFrameSyncIn, ptr %110, i32 0, i32 0
  store i32 0, ptr %111, align 8, !tbaa !50
  %112 = load ptr, ptr %11, align 8, !tbaa !46
  %113 = getelementptr inbounds %struct.FFFrameSyncIn, ptr %112, i64 2
  %114 = getelementptr inbounds nuw %struct.FFFrameSyncIn, ptr %113, i32 0, i32 1
  store i32 2, ptr %114, align 4, !tbaa !51
  %115 = load ptr, ptr %6, align 8, !tbaa !22
  %116 = load ptr, ptr %6, align 8, !tbaa !22
  %117 = getelementptr inbounds nuw %struct.ColorMapContext, ptr %116, i32 0, i32 14
  %118 = getelementptr inbounds nuw %struct.FFFrameSync, ptr %117, i32 0, i32 6
  store ptr %115, ptr %118, align 8, !tbaa !52
  %119 = load ptr, ptr %6, align 8, !tbaa !22
  %120 = getelementptr inbounds nuw %struct.ColorMapContext, ptr %119, i32 0, i32 14
  %121 = getelementptr inbounds nuw %struct.FFFrameSync, ptr %120, i32 0, i32 5
  store ptr @process_frame, ptr %121, align 8, !tbaa !53
  %122 = load ptr, ptr %6, align 8, !tbaa !22
  %123 = getelementptr inbounds nuw %struct.ColorMapContext, ptr %122, i32 0, i32 14
  %124 = call i32 @ff_framesync_configure(ptr noundef %123)
  store i32 %124, ptr %12, align 4, !tbaa !38
  %125 = load ptr, ptr %3, align 8, !tbaa !24
  %126 = getelementptr inbounds nuw %struct.AVFilterLink, ptr %125, i32 0, i32 13
  %127 = load ptr, ptr %6, align 8, !tbaa !22
  %128 = getelementptr inbounds nuw %struct.ColorMapContext, ptr %127, i32 0, i32 14
  %129 = getelementptr inbounds nuw %struct.FFFrameSync, ptr %128, i32 0, i32 3
  call void @llvm.memcpy.p0.p0.i64(ptr align 8 %126, ptr align 4 %129, i64 8, i1 false), !tbaa.struct !37
  %130 = load i32, ptr %12, align 4, !tbaa !38
  store i32 %130, ptr %2, align 4
  store i32 1, ptr %13, align 4
  br label %131

131:                                              ; preds = %68, %66
  call void @llvm.lifetime.end.p0(i64 4, ptr %12) #10
  call void @llvm.lifetime.end.p0(i64 8, ptr %11) #10
  call void @llvm.lifetime.end.p0(i64 8, ptr %10) #10
  call void @llvm.lifetime.end.p0(i64 8, ptr %9) #10
  call void @llvm.lifetime.end.p0(i64 8, ptr %8) #10
  call void @llvm.lifetime.end.p0(i64 8, ptr %7) #10
  call void @llvm.lifetime.end.p0(i64 8, ptr %6) #10
  call void @llvm.lifetime.end.p0(i64 8, ptr %5) #10
  call void @llvm.lifetime.end.p0(i64 8, ptr %4) #10
  %132 = load i32, ptr %2, align 4
  ret i32 %132
}