; Function Attrs: nounwind uwtable
define internal i32 @config_output(ptr noundef captures(none) initializes((40, 56), (96, 104), (264, 272)) %0) #2 {
  %2 = load ptr, ptr %0, align 8, !tbaa !20
  %3 = getelementptr inbounds nuw i8, ptr %2, i64 72
  %4 = load ptr, ptr %3, align 8, !tbaa !4
  %5 = getelementptr inbounds nuw i8, ptr %2, i64 32
  %6 = load ptr, ptr %5, align 8, !tbaa !29
  %7 = load ptr, ptr %6, align 8, !tbaa !30
  %8 = getelementptr inbounds nuw i8, ptr %6, i64 8
  %9 = load ptr, ptr %8, align 8, !tbaa !30
  %10 = getelementptr inbounds nuw i8, ptr %6, i64 16
  %11 = load ptr, ptr %10, align 8, !tbaa !30
  %12 = getelementptr inbounds nuw i8, ptr %0, i64 96
  %13 = getelementptr inbounds nuw i8, ptr %7, i64 96
  %14 = load i64, ptr %13, align 8
  store i64 %14, ptr %12, align 8
  %15 = getelementptr inbounds nuw i8, ptr %0, i64 264
  %16 = getelementptr inbounds nuw i8, ptr %7, i64 264
  %17 = load i64, ptr %16, align 8
  store i64 %17, ptr %15, align 8
  %18 = getelementptr inbounds nuw i8, ptr %0, i64 48
  %19 = getelementptr inbounds nuw i8, ptr %7, i64 48
  %20 = load i64, ptr %19, align 8
  store i64 %20, ptr %18, align 8
  %21 = getelementptr inbounds nuw i8, ptr %7, i64 40
  %22 = load i32, ptr %21, align 8, !tbaa !32
  %23 = getelementptr inbounds nuw i8, ptr %0, i64 40
  store i32 %22, ptr %23, align 8, !tbaa !32
  %24 = getelementptr inbounds nuw i8, ptr %7, i64 44
  %25 = load i32, ptr %24, align 4, !tbaa !33
  %26 = getelementptr inbounds nuw i8, ptr %0, i64 44
  store i32 %25, ptr %26, align 4, !tbaa !33
  %27 = getelementptr inbounds nuw i8, ptr %4, i64 4208
  %28 = tail call i32 @ff_framesync_init(ptr noundef nonnull %27, ptr noundef %2, i32 noundef 3) #12
  %29 = icmp slt i32 %28, 0
  br i1 %29, label %54, label %30

30:                                               ; preds = %1
  %31 = getelementptr inbounds nuw i8, ptr %4, i64 4280
  %32 = load ptr, ptr %31, align 8, !tbaa !34
  %33 = getelementptr inbounds nuw i8, ptr %32, i64 8
  %34 = load i64, ptr %13, align 8
  store i64 %34, ptr %33, align 8
  %35 = getelementptr inbounds nuw i8, ptr %32, i64 64
  %36 = getelementptr inbounds nuw i8, ptr %32, i64 72
  %37 = getelementptr inbounds nuw i8, ptr %9, i64 96
  %38 = load i64, ptr %37, align 8
  store i64 %38, ptr %36, align 8
  %39 = getelementptr inbounds nuw i8, ptr %32, i64 128
  %40 = getelementptr inbounds nuw i8, ptr %32, i64 136
  %41 = getelementptr inbounds nuw i8, ptr %11, i64 96
  %42 = load i64, ptr %41, align 8
  store i64 %42, ptr %40, align 8
  %43 = getelementptr inbounds nuw i8, ptr %32, i64 52
  store i32 1, ptr %43, align 4, !tbaa !39
  store i32 0, ptr %32, align 8, !tbaa !42
  %44 = getelementptr inbounds nuw i8, ptr %32, i64 4
  store i32 2, ptr %44, align 4, !tbaa !43
  %45 = getelementptr inbounds nuw i8, ptr %32, i64 116
  store i32 1, ptr %45, align 4, !tbaa !39
  store i32 0, ptr %35, align 8, !tbaa !42
  %46 = getelementptr inbounds nuw i8, ptr %32, i64 68
  store i32 2, ptr %46, align 4, !tbaa !43
  %47 = getelementptr inbounds nuw i8, ptr %32, i64 180
  store i32 1, ptr %47, align 4, !tbaa !39
  store i32 0, ptr %39, align 8, !tbaa !42
  %48 = getelementptr inbounds nuw i8, ptr %32, i64 132
  store i32 2, ptr %48, align 4, !tbaa !43
  %49 = getelementptr inbounds nuw i8, ptr %4, i64 4256
  store ptr %4, ptr %49, align 8, !tbaa !44
  %50 = getelementptr inbounds nuw i8, ptr %4, i64 4248
  store ptr @process_frame, ptr %50, align 8, !tbaa !45
  %51 = tail call i32 @ff_framesync_configure(ptr noundef nonnull %27) #12
  %52 = getelementptr inbounds nuw i8, ptr %4, i64 4228
  %53 = load i64, ptr %52, align 4
  store i64 %53, ptr %12, align 8
  br label %54

54:                                               ; preds = %1, %30
  %.0 = phi i32 [ %51, %30 ], [ %28, %1 ]
  ret i32 %.0
}